target datalayout = "e-m:e-p270:32:32-p271:32:32-p272:64:64-i64:64-i128:128-f80:128-n8:16:32:64-S128"
target triple = "x86_64-pc-linux-gnu"

%struct._php_stream = type { ptr, ptr, %struct._php_stream_filter_chain, %struct._php_stream_filter_chain, ptr, ptr, %struct._zval_struct, i16, [16 x i8], i32, ptr, ptr, ptr, ptr, i64, ptr, i64, i64, i64, i64, ptr }
%struct._php_stream_filter_chain = type { ptr, ptr, ptr }
%struct._zval_struct = type { %union._zend_value, %union.anon, %union.anon.2 }
%union._zend_value = type { i64 }
%union.anon = type { i32 }
%union.anon.2 = type { i32 }
%struct.php_stdio_stream_data = type { ptr, i32, i32, i32, ptr, ptr, i64, %struct.stat }
%struct.stat = type { i64, i64, i64, i32, i32, i32, i32, i64, i64, i64, i64, %struct.timespec, %struct.timespec, %struct.timespec, [3 x i64] }
%struct.timespec = type { i64, i64 }

@.str.11 = private unnamed_addr constant [27 x i8] c"Cannot seek on this stream\00", align 1

; Function Attrs: nounwind uwtable
define internal i32 @php_stdiop_seek(ptr noundef %0, i64 noundef %1, i32 noundef %2, ptr noundef %3) #0 {
  %5 = alloca i32, align 4
  %6 = alloca ptr, align 8
  %7 = alloca i64, align 8
  %8 = alloca i32, align 4
  %9 = alloca ptr, align 8
  %10 = alloca ptr, align 8
  %11 = alloca i32, align 4
  %12 = alloca i32, align 4
  %13 = alloca i64, align 8
  store ptr %0, ptr %6, align 8, !tbaa !18
  store i64 %1, ptr %7, align 8, !tbaa !52
  store i32 %2, ptr %8, align 4, !tbaa !12
  store ptr %3, ptr %9, align 8, !tbaa !55
  call void @llvm.lifetime.start.p0(i64 8, ptr %10) #13
  %14 = load ptr, ptr %6, align 8, !tbaa !18
  %15 = getelementptr inbounds nuw %struct._php_stream, ptr %14, i32 0, i32 1
  %16 = load ptr, ptr %15, align 8, !tbaa !20
  store ptr %16, ptr %10, align 8, !tbaa !31
  call void @llvm.lifetime.start.p0(i64 4, ptr %11) #13
  %17 = load ptr, ptr %10, align 8, !tbaa !31
  %18 = getelementptr inbounds nuw %struct.php_stdio_stream_data, ptr %17, i32 0, i32 2
  %19 = load i32, ptr %18, align 4
  %20 = lshr i32 %19, 5
  %21 = and i32 %20, 1
  %22 = icmp ne i32 %21, 0
  br i1 %22, label %24, label %23

23:                                               ; preds = %4
  call void (ptr, i32, ptr, ...) @php_error_docref(ptr noundef null, i32 noundef 2, ptr noundef @.str.11)
  store i32 -1, ptr %5, align 4
  store i32 1, ptr %12, align 4
  br label %56

24:                                               ; preds = %4
  %25 = load ptr, ptr %10, align 8, !tbaa !31
  %26 = getelementptr inbounds nuw %struct.php_stdio_stream_data, ptr %25, i32 0, i32 1
  %27 = load i32, ptr %26, align 8, !tbaa !43
  %28 = icmp sge i32 %27, 0
  br i1 %28, label %29, label %43

29:                                               ; preds = %24
  call void @llvm.lifetime.start.p0(i64 8, ptr %13) #13
  %30 = load ptr, ptr %10, align 8, !tbaa !31
  %31 = getelementptr inbounds nuw %struct.php_stdio_stream_data, ptr %30, i32 0, i32 1
  %32 = load i32, ptr %31, align 8, !tbaa !43
  %33 = load i64, ptr %7, align 8, !tbaa !52
  %34 = load i32, ptr %8, align 4, !tbaa !12
  %35 = call i64 @lseek(i32 noundef %32, i64 noundef %33, i32 noundef %34) #13
  store i64 %35, ptr %13, align 8, !tbaa !52
  %36 = load i64, ptr %13, align 8, !tbaa !52
  %37 = icmp eq i64 %36, -1
  br i1 %37, label %38, label %39

38:                                               ; preds = %29
  store i32 -1, ptr %5, align 4
  store i32 1, ptr %12, align 4
  br label %42

39:                                               ; preds = %29
  %40 = load i64, ptr %13, align 8, !tbaa !52
  %41 = load ptr, ptr %9, align 8, !tbaa !55
  store i64 %40, ptr %41, align 8, !tbaa !52
  store i32 0, ptr %5, align 4
  store i32 1, ptr %12, align 4
  br label %42

42:                                               ; preds = %39, %38
  call void @llvm.lifetime.end.p0(i64 8, ptr %13) #13
  br label %56

43:                                               ; preds = %24
  %44 = load ptr, ptr %10, align 8, !tbaa !31
  %45 = getelementptr inbounds nuw %struct.php_stdio_stream_data, ptr %44, i32 0, i32 0
  %46 = load ptr, ptr %45, align 8, !tbaa !42
  %47 = load i64, ptr %7, align 8, !tbaa !52
  %48 = load i32, ptr %8, align 4, !tbaa !12
  %49 = call i32 @fseek(ptr noundef %46, i64 noundef %47, i32 noundef %48)
  store i32 %49, ptr %11, align 4, !tbaa !12
  %50 = load ptr, ptr %10, align 8, !tbaa !31
  %51 = getelementptr inbounds nuw %struct.php_stdio_stream_data, ptr %50, i32 0, i32 0
  %52 = load ptr, ptr %51, align 8, !tbaa !42
  %53 = call i64 @ftell(ptr noundef %52)
  %54 = load ptr, ptr %9, align 8, !tbaa !55
  store i64 %53, ptr %54, align 8, !tbaa !52
  %55 = load i32, ptr %11, align 4, !tbaa !12
  store i32 %55, ptr %5, align 4
  store i32 1, ptr %12, align 4
  br label %56

56:                                               ; preds = %43, %42, %23
  call void @llvm.lifetime.end.p0(i64 4, ptr %11) #13
  call void @llvm.lifetime.end.p0(i64 8, ptr %10) #13
  %57 = load i32, ptr %5, align 4
  ret i32 %57
}