; Function Attrs: nounwind uwtable
define internal noundef i32 @php_stdiop_seek(ptr noundef readonly captures(none) %0, i64 noundef %1, i32 noundef %2, ptr noundef writeonly captures(none) %3) #3 {
  %5 = getelementptr inbounds nuw i8, ptr %0, i64 8
  %6 = load ptr, ptr %5, align 8, !tbaa !20
  %7 = getelementptr inbounds nuw i8, ptr %6, i64 12
  %8 = load i32, ptr %7, align 4
  %9 = and i32 %8, 32
  %.not = icmp eq i32 %9, 0
  br i1 %.not, label %10, label %11

10:                                               ; preds = %4
  tail call void (ptr, i32, ptr, ...) @php_error_docref(ptr noundef null, i32 noundef 2, ptr noundef nonnull @.str.11) #17
  br label %24

11:                                               ; preds = %4
  %12 = getelementptr inbounds nuw i8, ptr %6, i64 8
  %13 = load i32, ptr %12, align 8, !tbaa !19
  %14 = icmp sgt i32 %13, -1
  br i1 %14, label %15, label %19

15:                                               ; preds = %11
  %16 = tail call i64 @lseek(i32 noundef %13, i64 noundef %1, i32 noundef %2) #17
  %17 = icmp eq i64 %16, -1
  br i1 %17, label %24, label %18

18:                                               ; preds = %15
  store i64 %16, ptr %3, align 8, !tbaa !43
  br label %24

19:                                               ; preds = %11
  %20 = load ptr, ptr %6, align 8, !tbaa !36
  %21 = tail call i32 @fseek(ptr noundef %20, i64 noundef %1, i32 noundef %2)
  %22 = load ptr, ptr %6, align 8, !tbaa !36
  %23 = tail call i64 @ftell(ptr noundef %22)
  store i64 %23, ptr %3, align 8, !tbaa !43
  br label %24

24:                                               ; preds = %18, %15, %19, %10
  %.0 = phi i32 [ %21, %19 ], [ -1, %10 ], [ 0, %18 ], [ -1, %15 ]
  ret i32 %.0
}